; ModuleID = 'source-C-CXX/59/485.c'
source_filename = "source-C-CXX/59/485.c"
target datalayout = "e-m:e-p270:32:32-p271:32:32-p272:64:64-i64:64-f80:128-n8:16:32:64-S128"
target triple = "x86_64-pc-linux-gnu"

@.str = private unnamed_addr constant [3 x i8] c"%d\00", align 1
@.str.1 = private unnamed_addr constant [6 x i8] c"%d %d\00", align 1
@.str.2 = private unnamed_addr constant [7 x i8] c"\0A%d %d\00", align 1
@.str.3 = private unnamed_addr constant [6 x i8] c"empty\00", align 1

; Function Attrs: nofree nounwind sspstrong uwtable
define dso_local i32 @main() local_unnamed_addr #0 {
  %1 = alloca i32, align 4
  %2 = bitcast i32* %1 to i8*
  call void @llvm.lifetime.start.p0i8(i64 4, i8* nonnull %2) #3
  %3 = call i32 (i8*, ...) @__isoc99_scanf(i8* getelementptr inbounds ([3 x i8], [3 x i8]* @.str, i64 0, i64 0), i32* nonnull %1)
  %4 = load i32, i32* %1, align 4, !tbaa !5
  %5 = icmp sgt i32 %4, 4
  br i1 %5, label %6, label %41

6:                                                ; preds = %0, %33
  %7 = phi i32 [ %34, %33 ], [ 0, %0 ]
  %8 = phi i32 [ %35, %33 ], [ 3, %0 ]
  %9 = add nuw nsw i32 %8, 2
  br label %10

10:                                               ; preds = %6, %10
  %11 = phi i32 [ %21, %10 ], [ 0, %6 ]
  %12 = phi i32 [ %17, %10 ], [ 0, %6 ]
  %13 = phi i32 [ %22, %10 ], [ 2, %6 ]
  %14 = urem i32 %8, %13
  %15 = icmp eq i32 %14, 0
  %16 = zext i1 %15 to i32
  %17 = add nuw nsw i32 %12, %16
  %18 = urem i32 %9, %13
  %19 = icmp eq i32 %18, 0
  %20 = zext i1 %19 to i32
  %21 = add nuw nsw i32 %11, %20
  %22 = add nuw nsw i32 %13, 1
  %23 = icmp eq i32 %22, %8
  br i1 %23, label %24, label %10, !llvm.loop !9

24:                                               ; preds = %10
  %25 = icmp eq i32 %21, 0
  %26 = icmp eq i32 %17, 0
  %27 = select i1 %25, i1 %26, i1 false
  br i1 %27, label %28, label %33

28:                                               ; preds = %24
  %29 = icmp eq i32 %7, 0
  %30 = add nsw i32 %7, 1
  %31 = select i1 %29, i8* getelementptr inbounds ([6 x i8], [6 x i8]* @.str.1, i64 0, i64 0), i8* getelementptr inbounds ([7 x i8], [7 x i8]* @.str.2, i64 0, i64 0)
  %32 = call i32 (i8*, ...) @printf(i8* nonnull dereferenceable(1) %31, i32 %8, i32 %9)
  br label %33

33:                                               ; preds = %28, %24
  %34 = phi i32 [ %7, %24 ], [ %30, %28 ]
  %35 = add nuw nsw i32 %8, 1
  %36 = load i32, i32* %1, align 4, !tbaa !5
  %37 = add nsw i32 %36, -1
  %38 = icmp slt i32 %35, %37
  br i1 %38, label %6, label %39, !llvm.loop !11

39:                                               ; preds = %33
  %40 = icmp eq i32 %34, 0
  br i1 %40, label %41, label %43

41:                                               ; preds = %0, %39
  %42 = call i32 (i8*, ...) @printf(i8* nonnull dereferenceable(1) getelementptr inbounds ([6 x i8], [6 x i8]* @.str.3, i64 0, i64 0))
  br label %43

43:                                               ; preds = %41, %39
  call void @llvm.lifetime.end.p0i8(i64 4, i8* nonnull %2) #3
  ret i32 0
}

; Function Attrs: argmemonly mustprogress nofree nosync nounwind willreturn
declare void @llvm.lifetime.start.p0i8(i64 immarg, i8* nocapture) #1

; Function Attrs: nofree nounwind
declare noundef i32 @__isoc99_scanf(i8* nocapture noundef readonly, ...) local_unnamed_addr #2

; Function Attrs: nofree nounwind
declare noundef i32 @printf(i8* nocapture noundef readonly, ...) local_unnamed_addr #2

; Function Attrs: argmemonly mustprogress nofree nosync nounwind willreturn
declare void @llvm.lifetime.end.p0i8(i64 immarg, i8* nocapture) #1


!llvm.module.flags = !{!0, !1, !2, !3}
!llvm.ident = !{!4}

!0 = !{i32 1, !"wchar_size", i32 4}
!1 = !{i32 7, !"PIC Level", i32 2}
!2 = !{i32 7, !"PIE Level", i32 2}
!3 = !{i32 7, !"uwtable", i32 1}
!4 = !{!"clang version 13.0.0"}
!5 = !{!6, !6, i64 0}
!6 = !{!"int", !7, i64 0}
!7 = !{!"omnipotent char", !8, i64 0}
!8 = !{!"Simple C/C++ TBAA"}
!9 = distinct !{!9, !10}
!10 = !{!"llvm.loop.mustprogress"}
!11 = distinct !{!11, !10}
